target datalayout = "e-m:e-p270:32:32-p271:32:32-p272:64:64-i64:64-i128:128-f80:128-n8:16:32:64-S128"
target triple = "x86_64-pc-linux-gnu"

%class.Node = type <{ ptr, ptr, ptr, i32, i32, i32, i32, i32, i32, i32, [4 x i8] }>
%class.Node.base = type <{ ptr, ptr, ptr, i32, i32, i32, i32, i32, i32, i32 }>
%class.MemNode = type { %class.Node.base, i8, i8, i8, i8 }
%class.LoadNode = type { %class.MemNode, i32, i32, ptr }

; Function Attrs: mustprogress nounwind uwtable
define linkonce_odr hidden noundef ptr @_ZNK4Node2inEj(ptr noundef nonnull align 8 dereferenceable(52) %0, i32 noundef %1) #1 comdat align 2 {
  %3 = alloca ptr, align 8
  %4 = alloca i32, align 4
  store ptr %0, ptr %3, align 8
  store i32 %1, ptr %4, align 4
  %5 = load ptr, ptr %3, align 8
  %6 = getelementptr inbounds %class.Node, ptr %5, i32 0, i32 1
  %7 = load ptr, ptr %6, align 8
  %8 = load i32, ptr %4, align 4
  %9 = zext i32 %8 to i64
  %10 = getelementptr inbounds ptr, ptr %7, i64 %9
  %11 = load ptr, ptr %10, align 8
  ret ptr %11
}

; Function Attrs: mustprogress nounwind uwtable
define hidden noundef ptr @_ZN9LoadSNode5IdealEP8PhaseGVNb(ptr noundef nonnull align 8 dereferenceable(72) %0, ptr noundef %1, i1 noundef zeroext %2) unnamed_addr #1 align 2 {
  %4 = alloca ptr, align 8
  %5 = alloca ptr, align 8
  %6 = alloca ptr, align 8
  %7 = alloca i8, align 1
  %8 = alloca ptr, align 8
  %9 = alloca ptr, align 8
  %10 = alloca ptr, align 8
  store ptr %0, ptr %5, align 8
  store ptr %1, ptr %6, align 8
  %11 = zext i1 %2 to i8
  store i8 %11, ptr %7, align 1
  %12 = load ptr, ptr %5, align 8
  %13 = call noundef ptr @_ZNK4Node2inEj(ptr noundef nonnull align 8 dereferenceable(52) %12, i32 noundef 1)
  store ptr %13, ptr %8, align 8
  %14 = load ptr, ptr %8, align 8
  %15 = load ptr, ptr %6, align 8
  %16 = call noundef ptr @_ZNK7MemNode20can_see_stored_valueEP4NodeP11PhaseValues(ptr noundef nonnull align 8 dereferenceable(56) %12, ptr noundef %14, ptr noundef %15)
  store ptr %16, ptr %9, align 8
  %17 = load ptr, ptr %9, align 8
  %18 = icmp ne ptr %17, null
  br i1 %18, label %19, label %31

19:                                               ; preds = %3
  %20 = load ptr, ptr %9, align 8
  %21 = getelementptr inbounds %class.LoadNode, ptr %12, i32 0, i32 3
  %22 = load ptr, ptr %21, align 8
  %23 = load ptr, ptr %6, align 8
  %24 = call noundef ptr @_ZN7Compile12narrow_valueE9BasicTypeP4NodePK4TypeP8PhaseGVNb(i8 noundef zeroext 9, ptr noundef %20, ptr noundef %22, ptr noundef %23, i1 noundef zeroext false)
  store ptr %24, ptr %10, align 8
  %25 = load ptr, ptr %10, align 8
  %26 = load ptr, ptr %9, align 8
  %27 = icmp ne ptr %25, %26
  br i1 %27, label %28, label %30

28:                                               ; preds = %19
  %29 = load ptr, ptr %10, align 8
  store ptr %29, ptr %4, align 8
  br label %36

30:                                               ; preds = %19
  br label %31

31:                                               ; preds = %30, %3
  %32 = load ptr, ptr %6, align 8
  %33 = load i8, ptr %7, align 1
  %34 = trunc i8 %33 to i1
  %35 = call noundef ptr @_ZN8LoadNode5IdealEP8PhaseGVNb(ptr noundef nonnull align 8 dereferenceable(72) %12, ptr noundef %32, i1 noundef zeroext %34)
  store ptr %35, ptr %4, align 8
  br label %36

36:                                               ; preds = %31, %28
  %37 = load ptr, ptr %4, align 8
  ret ptr %37
}